; ModuleID = '49/704.cpp'
source_filename = "49/704.cpp"
target datalayout = "e-m:e-p270:32:32-p271:32:32-p272:64:64-i64:64-f80:128-n8:16:32:64-S128"
target triple = "x86_64-pc-linux-gnu"

%"class.std::ios_base::Init" = type { i8 }
%"class.std::basic_istream" = type { i32 (...)**, i64, %"class.std::basic_ios" }
%"class.std::basic_ios" = type { %"class.std::ios_base", %"class.std::basic_ostream"*, i8, i8, %"class.std::basic_streambuf"*, %"class.std::ctype"*, %"class.std::num_put"*, %"class.std::num_get"* }
%"class.std::ios_base" = type { i32 (...)**, i64, i64, i32, i32, i32, %"struct.std::ios_base::_Callback_list"*, %"struct.std::ios_base::_Words", [8 x %"struct.std::ios_base::_Words"], i32, %"struct.std::ios_base::_Words"*, %"class.std::locale" }
%"struct.std::ios_base::_Callback_list" = type { %"struct.std::ios_base::_Callback_list"*, void (i32, %"class.std::ios_base"*, i32)*, i32, i32 }
%"struct.std::ios_base::_Words" = type { i8*, i64 }
%"class.std::locale" = type { %"class.std::locale::_Impl"* }
%"class.std::locale::_Impl" = type { i32, %"class.std::locale::facet"**, i64, %"class.std::locale::facet"**, i8** }
%"class.std::locale::facet" = type <{ i32 (...)**, i32, [4 x i8] }>
%"class.std::basic_ostream" = type { i32 (...)**, %"class.std::basic_ios" }
%"class.std::basic_streambuf" = type { i32 (...)**, i8*, i8*, i8*, i8*, i8*, i8*, %"class.std::locale" }
%"class.std::ctype" = type <{ %"class.std::locale::facet.base", [4 x i8], %struct.__locale_struct*, i8, [7 x i8], i32*, i32*, i16*, i8, [256 x i8], [256 x i8], i8, [6 x i8] }>
%"class.std::locale::facet.base" = type <{ i32 (...)**, i32 }>
%struct.__locale_struct = type { [13 x %struct.__locale_data*], i16*, i32*, i32*, [13 x i8*] }
%struct.__locale_data = type opaque
%"class.std::num_put" = type { %"class.std::locale::facet.base", [4 x i8] }
%"class.std::num_get" = type { %"class.std::locale::facet.base", [4 x i8] }

@_ZStL8__ioinit = internal global %"class.std::ios_base::Init" zeroinitializer, align 1
@__dso_handle = external hidden global i8
@_ZSt3cin = external dso_local global %"class.std::basic_istream", align 8
@_ZSt4cout = external dso_local global %"class.std::basic_ostream", align 8
@llvm.global_ctors = appending global [1 x { i32, void ()*, i8* }] [{ i32, void ()*, i8* } { i32 65535, void ()* @_GLOBAL__sub_I_704.cpp, i8* null }]

; Function Attrs: noinline uwtable
define internal void @__cxx_global_var_init() #0 section ".text.startup" {
  call void @_ZNSt8ios_base4InitC1Ev(%"class.std::ios_base::Init"* @_ZStL8__ioinit)
  %1 = call i32 @__cxa_atexit(void (i8*)* bitcast (void (%"class.std::ios_base::Init"*)* @_ZNSt8ios_base4InitD1Ev to void (i8*)*), i8* getelementptr inbounds (%"class.std::ios_base::Init", %"class.std::ios_base::Init"* @_ZStL8__ioinit, i32 0, i32 0), i8* @__dso_handle) #3
  ret void
}

declare dso_local void @_ZNSt8ios_base4InitC1Ev(%"class.std::ios_base::Init"*) unnamed_addr #1

; Function Attrs: nounwind
declare dso_local void @_ZNSt8ios_base4InitD1Ev(%"class.std::ios_base::Init"*) unnamed_addr #2

; Function Attrs: nounwind
declare dso_local i32 @__cxa_atexit(void (i8*)*, i8*, i8*) #3

; Function Attrs: noinline nounwind uwtable
define dso_local i32 @_Z5judgePc(i8* %0) #4 {
  %2 = alloca i32, align 4
  %3 = alloca i8*, align 8
  %4 = alloca i32, align 4
  %5 = alloca i32, align 4
  store i8* %0, i8** %3, align 8
  %6 = load i8*, i8** %3, align 8
  %7 = call i64 @strlen(i8* %6) #8
  %8 = trunc i64 %7 to i32
  store i32 %8, i32* %4, align 4
  store i32 0, i32* %5, align 4
  br label %9

9:                                                ; preds = %33, %1
  %10 = load i32, i32* %5, align 4
  %11 = load i32, i32* %4, align 4
  %12 = sdiv i32 %11, 2
  %13 = icmp sle i32 %10, %12
  br i1 %13, label %14, label %36

14:                                               ; preds = %9
  %15 = load i8*, i8** %3, align 8
  %16 = load i32, i32* %5, align 4
  %17 = sext i32 %16 to i64
  %18 = getelementptr inbounds i8, i8* %15, i64 %17
  %19 = load i8, i8* %18, align 1
  %20 = sext i8 %19 to i32
  %21 = load i8*, i8** %3, align 8
  %22 = load i32, i32* %4, align 4
  %23 = sub nsw i32 %22, 1
  %24 = load i32, i32* %5, align 4
  %25 = sub nsw i32 %23, %24
  %26 = sext i32 %25 to i64
  %27 = getelementptr inbounds i8, i8* %21, i64 %26
  %28 = load i8, i8* %27, align 1
  %29 = sext i8 %28 to i32
  %30 = icmp ne i32 %20, %29
  br i1 %30, label %31, label %32

31:                                               ; preds = %14
  store i32 0, i32* %2, align 4
  br label %37

32:                                               ; preds = %14
  br label %33

33:                                               ; preds = %32
  %34 = load i32, i32* %5, align 4
  %35 = add nsw i32 %34, 1
  store i32 %35, i32* %5, align 4
  br label %9

36:                                               ; preds = %9
  store i32 1, i32* %2, align 4
  br label %37

37:                                               ; preds = %36, %31
  %38 = load i32, i32* %2, align 4
  ret i32 %38
}

; Function Attrs: nounwind readonly
declare dso_local i64 @strlen(i8*) #5

; Function Attrs: noinline norecurse uwtable
define dso_local i32 @main() #6 {
  %1 = alloca i32, align 4
  %2 = alloca [500 x i8], align 16
  %3 = alloca [500 x i8], align 16
  %4 = alloca i32, align 4
  %5 = alloca i32, align 4
  %6 = alloca i32, align 4
  %7 = alloca i32, align 4
  store i32 0, i32* %1, align 4
  %8 = bitcast [500 x i8]* %2 to i8*
  call void @llvm.memset.p0i8.i64(i8* align 16 %8, i8 0, i64 500, i1 false)
  %9 = bitcast [500 x i8]* %3 to i8*
  call void @llvm.memset.p0i8.i64(i8* align 16 %9, i8 0, i64 500, i1 false)
  %10 = getelementptr inbounds [500 x i8], [500 x i8]* %2, i64 0, i64 0
  %11 = call dereferenceable(280) %"class.std::basic_istream"* @_ZStrsIcSt11char_traitsIcEERSt13basic_istreamIT_T0_ES6_PS3_(%"class.std::basic_istream"* dereferenceable(280) @_ZSt3cin, i8* %10)
  %12 = getelementptr inbounds [500 x i8], [500 x i8]* %2, i64 0, i64 0
  %13 = call i64 @strlen(i8* %12) #8
  %14 = trunc i64 %13 to i32
  store i32 %14, i32* %6, align 4
  store i32 2, i32* %7, align 4
  br label %15

15:                                               ; preds = %59, %0
  %16 = load i32, i32* %7, align 4
  %17 = load i32, i32* %6, align 4
  %18 = icmp sle i32 %16, %17
  br i1 %18, label %19, label %62

19:                                               ; preds = %15
  store i32 0, i32* %4, align 4
  br label %20

20:                                               ; preds = %55, %19
  %21 = load i32, i32* %4, align 4
  %22 = load i32, i32* %6, align 4
  %23 = load i32, i32* %7, align 4
  %24 = sub nsw i32 %22, %23
  %25 = icmp sle i32 %21, %24
  br i1 %25, label %26, label %58

26:                                               ; preds = %20
  store i32 0, i32* %5, align 4
  br label %27

27:                                               ; preds = %41, %26
  %28 = load i32, i32* %5, align 4
  %29 = load i32, i32* %7, align 4
  %30 = icmp slt i32 %28, %29
  br i1 %30, label %31, label %44

31:                                               ; preds = %27
  %32 = load i32, i32* %4, align 4
  %33 = load i32, i32* %5, align 4
  %34 = add nsw i32 %32, %33
  %35 = sext i32 %34 to i64
  %36 = getelementptr inbounds [500 x i8], [500 x i8]* %2, i64 0, i64 %35
  %37 = load i8, i8* %36, align 1
  %38 = load i32, i32* %5, align 4
  %39 = sext i32 %38 to i64
  %40 = getelementptr inbounds [500 x i8], [500 x i8]* %3, i64 0, i64 %39
  store i8 %37, i8* %40, align 1
  br label %41

41:                                               ; preds = %31
  %42 = load i32, i32* %5, align 4
  %43 = add nsw i32 %42, 1
  store i32 %43, i32* %5, align 4
  br label %27

44:                                               ; preds = %27
  %45 = load i32, i32* %5, align 4
  %46 = sext i32 %45 to i64
  %47 = getelementptr inbounds [500 x i8], [500 x i8]* %3, i64 0, i64 %46
  store i8 0, i8* %47, align 1
  %48 = getelementptr inbounds [500 x i8], [500 x i8]* %3, i64 0, i64 0
  %49 = call i32 @_Z5judgePc(i8* %48)
  %50 = icmp ne i32 %49, 0
  br i1 %50, label %51, label %55

51:                                               ; preds = %44
  %52 = getelementptr inbounds [500 x i8], [500 x i8]* %3, i64 0, i64 0
  %53 = call dereferenceable(272) %"class.std::basic_ostream"* @_ZStlsISt11char_traitsIcEERSt13basic_ostreamIcT_ES5_PKc(%"class.std::basic_ostream"* dereferenceable(272) @_ZSt4cout, i8* %52)
  %54 = call dereferenceable(272) %"class.std::basic_ostream"* @_ZNSolsEPFRSoS_E(%"class.std::basic_ostream"* %53, %"class.std::basic_ostream"* (%"class.std::basic_ostream"*)* @_ZSt4endlIcSt11char_traitsIcEERSt13basic_ostreamIT_T0_ES6_)
  br label %55

55:                                               ; preds = %51, %44
  %56 = load i32, i32* %4, align 4
  %57 = add nsw i32 %56, 1
  store i32 %57, i32* %4, align 4
  br label %20

58:                                               ; preds = %20
  br label %59

59:                                               ; preds = %58
  %60 = load i32, i32* %7, align 4
  %61 = add nsw i32 %60, 1
  store i32 %61, i32* %7, align 4
  br label %15

62:                                               ; preds = %15
  ret i32 0
}

; Function Attrs: argmemonly nounwind willreturn
declare void @llvm.memset.p0i8.i64(i8* nocapture writeonly, i8, i64, i1 immarg) #7

declare dso_local dereferenceable(280) %"class.std::basic_istream"* @_ZStrsIcSt11char_traitsIcEERSt13basic_istreamIT_T0_ES6_PS3_(%"class.std::basic_istream"* dereferenceable(280), i8*) #1

declare dso_local dereferenceable(272) %"class.std::basic_ostream"* @_ZStlsISt11char_traitsIcEERSt13basic_ostreamIcT_ES5_PKc(%"class.std::basic_ostream"* dereferenceable(272), i8*) #1

declare dso_local dereferenceable(272) %"class.std::basic_ostream"* @_ZNSolsEPFRSoS_E(%"class.std::basic_ostream"*, %"class.std::basic_ostream"* (%"class.std::basic_ostream"*)*) #1

declare dso_local dereferenceable(272) %"class.std::basic_ostream"* @_ZSt4endlIcSt11char_traitsIcEERSt13basic_ostreamIT_T0_ES6_(%"class.std::basic_ostream"* dereferenceable(272)) #1

; Function Attrs: noinline uwtable
define internal void @_GLOBAL__sub_I_704.cpp() #0 section ".text.startup" {
  call void @__cxx_global_var_init()
  ret void
}


!llvm.module.flags = !{!0}
!llvm.ident = !{!1}

!0 = !{i32 1, !"wchar_size", i32 4}
!1 = !{!"clang version 10.0.0-4ubuntu1 "}
