; ModuleID = 'source-C-CXX/48/704.cpp'
source_filename = "source-C-CXX/48/704.cpp"
target datalayout = "e-m:e-p270:32:32-p271:32:32-p272:64:64-i64:64-f80:128-n8:16:32:64-S128"
target triple = "x86_64-pc-linux-gnu"

%"class.std::ios_base::Init" = type { i8 }
%"class.std::basic_istream" = type { i32 (...)**, i64, %"class.std::basic_ios" }
%"class.std::basic_ios" = type { %"class.std::ios_base", %"class.std::basic_ostream"*, i8, i8, %"class.std::basic_streambuf"*, %"class.std::ctype"*, %"class.std::num_put"*, %"class.std::num_get"* }
%"class.std::ios_base" = type { i32 (...)**, i64, i64, i32, i32, i32, %"struct.std::ios_base::_Callback_list"*, %"struct.std::ios_base::_Words", [8 x %"struct.std::ios_base::_Words"], i32, %"struct.std::ios_base::_Words"*, %"class.std::locale" }
%"struct.std::ios_base::_Callback_list" = type { %"struct.std::ios_base::_Callback_list"*, void (i32, %"class.std::ios_base"*, i32)*, i32, i32 }
%"struct.std::ios_base::_Words" = type { i8*, i64 }
%"class.std::locale" = type { %"class.std::locale::_Impl"* }
%"class.std::locale::_Impl" = type { i32, %"class.std::locale::facet"**, i64, %"class.std::locale::facet"**, i8** }
%"class.std::locale::facet" = type <{ i32 (...)**, i32, [4 x i8] }>
%"class.std::basic_ostream" = type { i32 (...)**, %"class.std::basic_ios" }
%"class.std::basic_streambuf" = type { i32 (...)**, i8*, i8*, i8*, i8*, i8*, i8*, %"class.std::locale" }
%"class.std::ctype" = type <{ %"class.std::locale::facet.base", [4 x i8], %struct.__locale_struct*, i8, [7 x i8], i32*, i32*, i16*, i8, [256 x i8], [256 x i8], i8, [6 x i8] }>
%"class.std::locale::facet.base" = type <{ i32 (...)**, i32 }>
%struct.__locale_struct = type { [13 x %struct.__locale_data*], i16*, i32*, i32*, [13 x i8*] }
%struct.__locale_data = type opaque
%"class.std::num_put" = type { %"class.std::locale::facet.base", [4 x i8] }
%"class.std::num_get" = type { %"class.std::locale::facet.base", [4 x i8] }

@_ZStL8__ioinit = internal global %"class.std::ios_base::Init" zeroinitializer, align 1
@__dso_handle = external hidden global i8
@_ZSt3cin = external global %"class.std::basic_istream", align 8
@_ZSt4cout = external global %"class.std::basic_ostream", align 8
@llvm.global_ctors = appending global [1 x { i32, void ()*, i8* }] [{ i32, void ()*, i8* } { i32 65535, void ()* @_GLOBAL__sub_I_704.cpp, i8* null }]

declare void @_ZNSt8ios_base4InitC1Ev(%"class.std::ios_base::Init"* nonnull align 1 dereferenceable(1)) unnamed_addr #0

; Function Attrs: nounwind
declare void @_ZNSt8ios_base4InitD1Ev(%"class.std::ios_base::Init"* nonnull align 1 dereferenceable(1)) unnamed_addr #1

; Function Attrs: nofree nounwind
declare i32 @__cxa_atexit(void (i8*)*, i8*, i8*) local_unnamed_addr #2

; Function Attrs: mustprogress nofree nounwind readonly sspstrong uwtable willreturn
define dso_local i32 @_Z5judgePc(i8* nocapture readonly %0) local_unnamed_addr #3 {
  %2 = tail call i64 @strlen(i8* noundef nonnull dereferenceable(1) %0) #11
  %3 = trunc i64 %2 to i32
  %4 = sdiv i32 %3, 2
  %5 = icmp slt i32 %3, -1
  br i1 %5, label %34, label %6

6:                                                ; preds = %1
  %7 = sext i32 %4 to i64
  %8 = add nsw i32 %4, 1
  %9 = zext i32 %8 to i64
  %10 = load i8, i8* %0, align 1, !tbaa !5
  %11 = shl i64 %2, 32
  %12 = add i64 %11, -4294967296
  %13 = ashr exact i64 %12, 32
  %14 = getelementptr inbounds i8, i8* %0, i64 %13
  %15 = load i8, i8* %14, align 1, !tbaa !5
  %16 = icmp eq i8 %10, %15
  br i1 %16, label %17, label %34

17:                                               ; preds = %6, %21
  %18 = phi i64 [ %19, %21 ], [ 0, %6 ]
  %19 = add nuw nsw i64 %18, 1
  %20 = icmp eq i64 %19, %9
  br i1 %20, label %31, label %21, !llvm.loop !8

21:                                               ; preds = %17
  %22 = getelementptr inbounds i8, i8* %0, i64 %19
  %23 = load i8, i8* %22, align 1, !tbaa !5
  %24 = sub nsw i64 4294967294, %18
  %25 = add i64 %2, %24
  %26 = shl i64 %25, 32
  %27 = ashr exact i64 %26, 32
  %28 = getelementptr inbounds i8, i8* %0, i64 %27
  %29 = load i8, i8* %28, align 1, !tbaa !5
  %30 = icmp eq i8 %23, %29
  br i1 %30, label %17, label %31, !llvm.loop !8

31:                                               ; preds = %17, %21
  %32 = icmp sge i64 %18, %7
  %33 = zext i1 %32 to i32
  br label %34

34:                                               ; preds = %31, %6, %1
  %35 = phi i32 [ 1, %1 ], [ 0, %6 ], [ %33, %31 ]
  ret i32 %35
}

; Function Attrs: argmemonly mustprogress nofree nosync nounwind willreturn
declare void @llvm.lifetime.start.p0i8(i64 immarg, i8* nocapture) #4

; Function Attrs: argmemonly mustprogress nofree nounwind readonly willreturn
declare i64 @strlen(i8* nocapture) local_unnamed_addr #5

; Function Attrs: argmemonly mustprogress nofree nosync nounwind willreturn
declare void @llvm.lifetime.end.p0i8(i64 immarg, i8* nocapture) #4

; Function Attrs: mustprogress norecurse sspstrong uwtable
define dso_local i32 @main() local_unnamed_addr #6 {
  %1 = alloca [500 x i8], align 16
  %2 = alloca [500 x i8], align 16
  %3 = getelementptr inbounds [500 x i8], [500 x i8]* %2, i64 0, i64 0
  %4 = getelementptr inbounds [500 x i8], [500 x i8]* %1, i64 0, i64 0
  call void @llvm.lifetime.start.p0i8(i64 500, i8* nonnull %4) #12
  call void @llvm.memset.p0i8.i64(i8* noundef nonnull align 16 dereferenceable(500) %4, i8 0, i64 500, i1 false)
  %5 = getelementptr inbounds [500 x i8], [500 x i8]* %2, i64 0, i64 0
  call void @llvm.lifetime.start.p0i8(i64 500, i8* nonnull %5) #12
  call void @llvm.memset.p0i8.i64(i8* noundef nonnull align 16 dereferenceable(500) %5, i8 0, i64 500, i1 false)
  call void @_ZSt17__istream_extractRSiPcl(%"class.std::basic_istream"* nonnull align 8 dereferenceable(16) @_ZSt3cin, i8* nonnull %4, i64 500)
  %6 = call i64 @strlen(i8* noundef nonnull %4) #11
  %7 = trunc i64 %6 to i32
  %8 = icmp slt i32 %7, 2
  br i1 %8, label %96, label %9

9:                                                ; preds = %0
  %10 = add nsw i32 %7, -1
  %11 = zext i32 %10 to i64
  br label %12

12:                                               ; preds = %9, %90
  %13 = phi i32 [ %10, %9 ], [ %94, %90 ]
  %14 = phi i64 [ 2, %9 ], [ %93, %90 ]
  %15 = phi i64 [ 0, %9 ], [ %92, %90 ]
  %16 = phi i32 [ 2, %9 ], [ %91, %90 ]
  %17 = add nuw nsw i64 %15, 2
  %18 = icmp sgt i32 %16, %7
  br i1 %18, label %90, label %19

19:                                               ; preds = %12
  %20 = zext i32 %13 to i64
  %21 = and i64 %14, 4294967295
  %22 = getelementptr inbounds [500 x i8], [500 x i8]* %2, i64 0, i64 %21
  br label %23

23:                                               ; preds = %19, %87
  %24 = phi i64 [ 0, %19 ], [ %88, %87 ]
  %25 = getelementptr [500 x i8], [500 x i8]* %1, i64 0, i64 %24
  call void @llvm.memcpy.p0i8.p0i8.i64(i8* noundef nonnull align 16 %3, i8* noundef nonnull align 1 dereferenceable(1) %25, i64 %17, i1 false)
  store i8 0, i8* %22, align 1, !tbaa !5
  %26 = call i64 @strlen(i8* noundef nonnull dereferenceable(1) %5) #11
  %27 = trunc i64 %26 to i32
  %28 = sdiv i32 %27, 2
  %29 = icmp slt i32 %27, -1
  br i1 %29, label %57, label %30

30:                                               ; preds = %23
  %31 = sext i32 %28 to i64
  %32 = add nsw i32 %28, 1
  %33 = zext i32 %32 to i64
  %34 = load i8, i8* %5, align 16, !tbaa !5
  %35 = shl i64 %26, 32
  %36 = add i64 %35, -4294967296
  %37 = ashr exact i64 %36, 32
  %38 = getelementptr inbounds [500 x i8], [500 x i8]* %2, i64 0, i64 %37
  %39 = load i8, i8* %38, align 1, !tbaa !5
  %40 = icmp eq i8 %34, %39
  br i1 %40, label %41, label %87

41:                                               ; preds = %30, %45
  %42 = phi i64 [ %43, %45 ], [ 0, %30 ]
  %43 = add nuw nsw i64 %42, 1
  %44 = icmp eq i64 %43, %33
  br i1 %44, label %55, label %45, !llvm.loop !8

45:                                               ; preds = %41
  %46 = getelementptr inbounds [500 x i8], [500 x i8]* %2, i64 0, i64 %43
  %47 = load i8, i8* %46, align 1, !tbaa !5
  %48 = sub nsw i64 4294967294, %42
  %49 = add i64 %48, %26
  %50 = shl i64 %49, 32
  %51 = ashr exact i64 %50, 32
  %52 = getelementptr inbounds [500 x i8], [500 x i8]* %2, i64 0, i64 %51
  %53 = load i8, i8* %52, align 1, !tbaa !5
  %54 = icmp eq i8 %47, %53
  br i1 %54, label %41, label %55, !llvm.loop !8

55:                                               ; preds = %45, %41
  %56 = icmp slt i64 %42, %31
  br i1 %56, label %87, label %57

57:                                               ; preds = %23, %55
  %58 = call i64 @strlen(i8* noundef nonnull dereferenceable(1) %5) #12
  %59 = call nonnull align 8 dereferenceable(8) %"class.std::basic_ostream"* @_ZSt16__ostream_insertIcSt11char_traitsIcEERSt13basic_ostreamIT_T0_ES6_PKS3_l(%"class.std::basic_ostream"* nonnull align 8 dereferenceable(8) @_ZSt4cout, i8* nonnull %5, i64 %58)
  %60 = load i8*, i8** bitcast (%"class.std::basic_ostream"* @_ZSt4cout to i8**), align 8, !tbaa !10
  %61 = getelementptr i8, i8* %60, i64 -24
  %62 = bitcast i8* %61 to i64*
  %63 = load i64, i64* %62, align 8
  %64 = add nsw i64 %63, 240
  %65 = getelementptr inbounds i8, i8* bitcast (%"class.std::basic_ostream"* @_ZSt4cout to i8*), i64 %64
  %66 = bitcast i8* %65 to %"class.std::ctype"**
  %67 = load %"class.std::ctype"*, %"class.std::ctype"** %66, align 8, !tbaa !12
  %68 = icmp eq %"class.std::ctype"* %67, null
  br i1 %68, label %69, label %70

69:                                               ; preds = %57
  call void @_ZSt16__throw_bad_castv() #13
  unreachable

70:                                               ; preds = %57
  %71 = getelementptr inbounds %"class.std::ctype", %"class.std::ctype"* %67, i64 0, i32 8
  %72 = load i8, i8* %71, align 8, !tbaa !16
  %73 = icmp eq i8 %72, 0
  br i1 %73, label %77, label %74

74:                                               ; preds = %70
  %75 = getelementptr inbounds %"class.std::ctype", %"class.std::ctype"* %67, i64 0, i32 9, i64 10
  %76 = load i8, i8* %75, align 1, !tbaa !5
  br label %83

77:                                               ; preds = %70
  call void @_ZNKSt5ctypeIcE13_M_widen_initEv(%"class.std::ctype"* nonnull align 8 dereferenceable(570) %67)
  %78 = bitcast %"class.std::ctype"* %67 to i8 (%"class.std::ctype"*, i8)***
  %79 = load i8 (%"class.std::ctype"*, i8)**, i8 (%"class.std::ctype"*, i8)*** %78, align 8, !tbaa !10
  %80 = getelementptr inbounds i8 (%"class.std::ctype"*, i8)*, i8 (%"class.std::ctype"*, i8)** %79, i64 6
  %81 = load i8 (%"class.std::ctype"*, i8)*, i8 (%"class.std::ctype"*, i8)** %80, align 8
  %82 = call signext i8 %81(%"class.std::ctype"* nonnull align 8 dereferenceable(570) %67, i8 signext 10)
  br label %83

83:                                               ; preds = %74, %77
  %84 = phi i8 [ %76, %74 ], [ %82, %77 ]
  %85 = call nonnull align 8 dereferenceable(8) %"class.std::basic_ostream"* @_ZNSo3putEc(%"class.std::basic_ostream"* nonnull align 8 dereferenceable(8) @_ZSt4cout, i8 signext %84)
  %86 = call nonnull align 8 dereferenceable(8) %"class.std::basic_ostream"* @_ZNSo5flushEv(%"class.std::basic_ostream"* nonnull align 8 dereferenceable(8) %85)
  br label %87

87:                                               ; preds = %30, %83, %55
  %88 = add nuw nsw i64 %24, 1
  %89 = icmp eq i64 %88, %20
  br i1 %89, label %90, label %23, !llvm.loop !18

90:                                               ; preds = %87, %12
  %91 = add nuw nsw i32 %16, 1
  %92 = add nuw nsw i64 %15, 1
  %93 = add nuw nsw i64 %14, 1
  %94 = add i32 %13, -1
  %95 = icmp eq i64 %92, %11
  br i1 %95, label %96, label %12, !llvm.loop !19

96:                                               ; preds = %90, %0
  call void @llvm.lifetime.end.p0i8(i64 500, i8* nonnull %5) #12
  call void @llvm.lifetime.end.p0i8(i64 500, i8* nonnull %4) #12
  ret i32 0
}

; Function Attrs: argmemonly mustprogress nofree nounwind willreturn writeonly
declare void @llvm.memset.p0i8.i64(i8* nocapture writeonly, i8, i64, i1 immarg) #7

declare void @_ZSt17__istream_extractRSiPcl(%"class.std::basic_istream"* nonnull align 8 dereferenceable(16), i8*, i64) local_unnamed_addr #0

declare nonnull align 8 dereferenceable(8) %"class.std::basic_ostream"* @_ZSt16__ostream_insertIcSt11char_traitsIcEERSt13basic_ostreamIT_T0_ES6_PKS3_l(%"class.std::basic_ostream"* nonnull align 8 dereferenceable(8), i8*, i64) local_unnamed_addr #0

declare nonnull align 8 dereferenceable(8) %"class.std::basic_ostream"* @_ZNSo3putEc(%"class.std::basic_ostream"* nonnull align 8 dereferenceable(8), i8 signext) local_unnamed_addr #0

declare nonnull align 8 dereferenceable(8) %"class.std::basic_ostream"* @_ZNSo5flushEv(%"class.std::basic_ostream"* nonnull align 8 dereferenceable(8)) local_unnamed_addr #0

; Function Attrs: noreturn
declare void @_ZSt16__throw_bad_castv() local_unnamed_addr #8

declare void @_ZNKSt5ctypeIcE13_M_widen_initEv(%"class.std::ctype"* nonnull align 8 dereferenceable(570)) local_unnamed_addr #0

; Function Attrs: sspstrong uwtable
define internal void @_GLOBAL__sub_I_704.cpp() #9 section ".text.startup" {
  tail call void @_ZNSt8ios_base4InitC1Ev(%"class.std::ios_base::Init"* nonnull align 1 dereferenceable(1) @_ZStL8__ioinit)
  %1 = tail call i32 @__cxa_atexit(void (i8*)* bitcast (void (%"class.std::ios_base::Init"*)* @_ZNSt8ios_base4InitD1Ev to void (i8*)*), i8* getelementptr inbounds (%"class.std::ios_base::Init", %"class.std::ios_base::Init"* @_ZStL8__ioinit, i64 0, i32 0), i8* nonnull @__dso_handle) #12
  ret void
}

; Function Attrs: argmemonly nofree nounwind willreturn
declare void @llvm.memcpy.p0i8.p0i8.i64(i8* noalias nocapture writeonly, i8* noalias nocapture readonly, i64, i1 immarg) #10


!llvm.module.flags = !{!0, !1, !2, !3}
!llvm.ident = !{!4}

!0 = !{i32 1, !"wchar_size", i32 4}
!1 = !{i32 7, !"PIC Level", i32 2}
!2 = !{i32 7, !"PIE Level", i32 2}
!3 = !{i32 7, !"uwtable", i32 1}
!4 = !{!"clang version 13.0.0"}
!5 = !{!6, !6, i64 0}
!6 = !{!"omnipotent char", !7, i64 0}
!7 = !{!"Simple C++ TBAA"}
!8 = distinct !{!8, !9}
!9 = !{!"llvm.loop.mustprogress"}
!10 = !{!11, !11, i64 0}
!11 = !{!"vtable pointer", !7, i64 0}
!12 = !{!13, !14, i64 240}
!13 = !{!"_ZTSSt9basic_iosIcSt11char_traitsIcEE", !14, i64 216, !6, i64 224, !15, i64 225, !14, i64 232, !14, i64 240, !14, i64 248, !14, i64 256}
!14 = !{!"any pointer", !6, i64 0}
!15 = !{!"bool", !6, i64 0}
!16 = !{!17, !6, i64 56}
!17 = !{!"_ZTSSt5ctypeIcE", !14, i64 16, !15, i64 24, !14, i64 32, !14, i64 40, !14, i64 48, !6, i64 56, !6, i64 57, !6, i64 313, !6, i64 569}
!18 = distinct !{!18, !9}
!19 = distinct !{!19, !9}
